target datalayout = "e-m:e-p270:32:32-p271:32:32-p272:64:64-i64:64-i128:128-f80:128-n8:16:32:64-S128"
target triple = "x86_64-pc-linux-gnu"

%struct.OSSL_TIME = type { i64 }

@time_counter = internal global i64 0, align 8

; Function Attrs: inlinehint nounwind uwtable
define internal i64 @ossl_time_infinite() #6 {
  %1 = alloca %struct.OSSL_TIME, align 8
  %2 = call i64 @ossl_ticks2time(i64 noundef -1)
  %3 = getelementptr inbounds nuw %struct.OSSL_TIME, ptr %1, i32 0, i32 0
  store i64 %2, ptr %3, align 8
  %4 = getelementptr inbounds nuw %struct.OSSL_TIME, ptr %1, i32 0, i32 0
  %5 = load i64, ptr %4, align 8
  ret i64 %5
}

; Function Attrs: inlinehint nounwind uwtable
define internal i64 @safe_mul_time(i64 noundef %0, i64 noundef %1, ptr noundef %2) #6 {
  %4 = alloca i64, align 8
  %5 = alloca i64, align 8
  %6 = alloca i64, align 8
  %7 = alloca ptr, align 8
  %8 = alloca i64, align 8
  %9 = alloca i32, align 4
  store i64 %0, ptr %5, align 8, !tbaa !15
  store i64 %1, ptr %6, align 8, !tbaa !15
  store ptr %2, ptr %7, align 8, !tbaa !72
  call void @llvm.lifetime.start.p0(i64 8, ptr %8) #9
  %10 = load i64, ptr %5, align 8, !tbaa !15
  %11 = load i64, ptr %6, align 8, !tbaa !15
  %12 = call { i64, i1 } @llvm.umul.with.overflow.i64(i64 %10, i64 %11)
  %13 = extractvalue { i64, i1 } %12, 1
  %14 = extractvalue { i64, i1 } %12, 0
  store i64 %14, ptr %8, align 8
  br i1 %13, label %17, label %15

15:                                               ; preds = %3
  %16 = load i64, ptr %8, align 8, !tbaa !15
  store i64 %16, ptr %4, align 8
  store i32 1, ptr %9, align 4
  br label %24

17:                                               ; preds = %3
  %18 = load ptr, ptr %7, align 8, !tbaa !72
  %19 = load i32, ptr %18, align 4, !tbaa !4
  %20 = or i32 %19, 1
  store i32 %20, ptr %18, align 4, !tbaa !4
  %21 = load i64, ptr %5, align 8, !tbaa !15
  %22 = load i64, ptr %6, align 8, !tbaa !15
  %23 = mul i64 %21, %22
  store i64 %23, ptr %4, align 8
  store i32 1, ptr %9, align 4
  br label %24

24:                                               ; preds = %17, %15
  call void @llvm.lifetime.end.p0(i64 8, ptr %8) #9
  %25 = load i64, ptr %4, align 8
  ret i64 %25
}

; Function Attrs: inlinehint nounwind uwtable
define internal i64 @ossl_time_multiply(i64 %0, i64 noundef %1) #6 {
  %3 = alloca %struct.OSSL_TIME, align 8
  %4 = alloca %struct.OSSL_TIME, align 8
  %5 = alloca i64, align 8
  %6 = alloca %struct.OSSL_TIME, align 8
  %7 = alloca i32, align 4
  %8 = getelementptr inbounds nuw %struct.OSSL_TIME, ptr %4, i32 0, i32 0
  store i64 %0, ptr %8, align 8
  store i64 %1, ptr %5, align 8, !tbaa !15
  call void @llvm.lifetime.start.p0(i64 8, ptr %6) #9
  call void @llvm.lifetime.start.p0(i64 4, ptr %7) #9
  store i32 0, ptr %7, align 4, !tbaa !4
  %9 = getelementptr inbounds nuw %struct.OSSL_TIME, ptr %4, i32 0, i32 0
  %10 = load i64, ptr %9, align 8, !tbaa !70
  %11 = load i64, ptr %5, align 8, !tbaa !15
  %12 = call i64 @safe_mul_time(i64 noundef %10, i64 noundef %11, ptr noundef %7)
  %13 = getelementptr inbounds nuw %struct.OSSL_TIME, ptr %6, i32 0, i32 0
  store i64 %12, ptr %13, align 8, !tbaa !70
  %14 = load i32, ptr %7, align 4, !tbaa !4
  %15 = icmp ne i32 %14, 0
  br i1 %15, label %16, label %19

16:                                               ; preds = %2
  %17 = call i64 @ossl_time_infinite()
  %18 = getelementptr inbounds nuw %struct.OSSL_TIME, ptr %3, i32 0, i32 0
  store i64 %17, ptr %18, align 8
  br label %20

19:                                               ; preds = %2
  call void @llvm.memcpy.p0.p0.i64(ptr align 8 %3, ptr align 8 %6, i64 8, i1 false), !tbaa.struct !71
  br label %20

20:                                               ; preds = %19, %16
  call void @llvm.lifetime.end.p0(i64 4, ptr %7) #9
  call void @llvm.lifetime.end.p0(i64 8, ptr %6) #9
  %21 = getelementptr inbounds nuw %struct.OSSL_TIME, ptr %3, i32 0, i32 0
  %22 = load i64, ptr %21, align 8
  ret i64 %22
}

; Function Attrs: inlinehint nounwind uwtable
define internal i64 @ossl_ticks2time(i64 noundef %0) #6 {
  %2 = alloca %struct.OSSL_TIME, align 8
  %3 = alloca i64, align 8
  store i64 %0, ptr %3, align 8, !tbaa !15
  %4 = load i64, ptr %3, align 8, !tbaa !15
  %5 = getelementptr inbounds nuw %struct.OSSL_TIME, ptr %2, i32 0, i32 0
  store i64 %4, ptr %5, align 8, !tbaa !70
  %6 = getelementptr inbounds nuw %struct.OSSL_TIME, ptr %2, i32 0, i32 0
  %7 = load i64, ptr %6, align 8
  ret i64 %7
}

; Function Attrs: nounwind uwtable
define internal i64 @expected_time(i64 noundef %0) #0 {
  %2 = alloca %struct.OSSL_TIME, align 8
  %3 = alloca i64, align 8
  %4 = alloca %struct.OSSL_TIME, align 8
  store i64 %0, ptr %3, align 8, !tbaa !15
  %5 = call i64 @ossl_ticks2time(i64 noundef 1000000)
  %6 = getelementptr inbounds nuw %struct.OSSL_TIME, ptr %4, i32 0, i32 0
  store i64 %5, ptr %6, align 8
  %7 = load i64, ptr %3, align 8, !tbaa !15
  %8 = getelementptr inbounds nuw %struct.OSSL_TIME, ptr %4, i32 0, i32 0
  %9 = load i64, ptr %8, align 8
  %10 = call i64 @ossl_time_multiply(i64 %9, i64 noundef %7)
  %11 = getelementptr inbounds nuw %struct.OSSL_TIME, ptr %2, i32 0, i32 0
  store i64 %10, ptr %11, align 8
  %12 = getelementptr inbounds nuw %struct.OSSL_TIME, ptr %2, i32 0, i32 0
  %13 = load i64, ptr %12, align 8
  ret i64 %13
}

; Function Attrs: nounwind uwtable
define internal i64 @fake_time(ptr noundef %0) #0 {
  %2 = alloca %struct.OSSL_TIME, align 8
  %3 = alloca ptr, align 8
  store ptr %0, ptr %3, align 8, !tbaa !66
  %4 = load i64, ptr @time_counter, align 8, !tbaa !15
  %5 = add i64 %4, 1
  store i64 %5, ptr @time_counter, align 8, !tbaa !15
  %6 = call i64 @expected_time(i64 noundef %5)
  %7 = getelementptr inbounds nuw %struct.OSSL_TIME, ptr %2, i32 0, i32 0
  store i64 %6, ptr %7, align 8
  %8 = getelementptr inbounds nuw %struct.OSSL_TIME, ptr %2, i32 0, i32 0
  %9 = load i64, ptr %8, align 8
  ret i64 %9
}