; Function Attrs: mustprogress nofree norecurse nosync nounwind willreturn memory(readwrite, argmem: none, inaccessiblemem: none) uwtable
define internal i64 @fake_time(ptr readnone captures(none) %0) #6 {
  %2 = load i64, ptr @time_counter, align 8, !tbaa !33
  %3 = add i64 %2, 1
  store i64 %3, ptr @time_counter, align 8, !tbaa !33
  %4 = tail call { i64, i1 } @llvm.umul.with.overflow.i64(i64 range(i64 -1, 1000001) %3, i64 1000000)
  %5 = extractvalue { i64, i1 } %4, 1
  %6 = extractvalue { i64, i1 } %4, 0
  %.sroa.02.0.i.i = select i1 %5, i64 -1, i64 %6
  ret i64 %.sroa.02.0.i.i
}